target datalayout = "e-m:e-p270:32:32-p271:32:32-p272:64:64-i64:64-i128:128-f80:128-n8:16:32:64-S128"
target triple = "x86_64-pc-linux-gnu"

%struct.GCRef = type { i64 }
%struct.GCstr = type { %struct.GCRef, i8, i8, i8, i8, i32, i32, i32 }
%struct.jit_State = type { %struct.GCtrace, ptr, ptr, ptr, ptr, ptr, ptr, i32, i32, i32, i8, i8, %struct.IRType1, i8, %struct.FoldState, ptr, i32, i32, i32, i32, i32, i32, i32, [1 x i32], [5 x %union.TValue], [3 x %union.TValue], ptr, i32, i32, i32, i32, ptr, ptr, i32, i32, i8, ptr, i32, i32, i16, [101 x i16], [258 x i32], [15 x i32], [16 x ptr], [64 x %struct.HotPenalty], i32, [16 x %struct.BPropEntry], i32, %struct.ScEvEntry, ptr, i32, i32, i32, ptr, i32, i32, ptr, ptr, ptr, i64, i64, %union.TValue, ptr, i32, i32 }
%struct.GCtrace = type { %struct.GCRef, i8, i8, i16, i32, i32, %struct.GCRef, ptr, i32, i32, ptr, ptr, %struct.GCRef, %struct.MRef, i32, i32, ptr, i32, i16, i16, i16, i16, i16, i16, i16, i8, i8, i8, i8 }
%struct.MRef = type { i64 }
%struct.IRType1 = type { i8 }
%struct.FoldState = type { %union.IRIns, [2 x %union.IRIns], [2 x %union.IRIns] }
%union.IRIns = type { %struct.GCRef }
%struct.HotPenalty = type { %struct.MRef, i16, i16 }
%struct.BPropEntry = type { i16, i16, i32 }
%struct.ScEvEntry = type { %struct.MRef, i16, i16, i16, i16, %struct.IRType1, i8 }
%union.TValue = type { i64 }
%struct.anon.2 = type { i16, i16, i16, i16 }
%struct.RecordFFData = type { ptr, i64, i32 }
%struct.lua_State = type { %struct.GCRef, i8, i8, i8, i8, %struct.MRef, %struct.GCRef, ptr, ptr, %struct.MRef, %struct.MRef, %struct.GCRef, %struct.GCRef, ptr, i32 }
%struct.RecordIndex = type { %union.TValue, %union.TValue, %union.TValue, %union.TValue, ptr, ptr, i32, i32, i32, i32, i32, i32 }
%struct.GG_State = type { %struct.lua_State, %struct.global_State, %struct.jit_State, [64 x i16], [243 x ptr], [57 x i32] }
%struct.global_State = type { ptr, ptr, %struct.GCState, %struct.GCstr, i8, i8, i8, i8, %struct.StrInternState, i32, %struct.GCRef, %struct.SBuf, %union.TValue, %union.TValue, %struct.Node, %union.TValue, %struct.GCupval, i32, i32, ptr, ptr, ptr, i32, i32, %struct.GCRef, %struct.MRef, %struct.MRef, %struct.PRNGState, [39 x %struct.GCRef] }
%struct.GCState = type { i64, i64, i8, i8, i8, i8, i32, %struct.GCRef, %struct.MRef, %struct.GCRef, %struct.GCRef, %struct.GCRef, %struct.GCRef, i64, i64, i32, i32, %struct.MRef }
%struct.StrInternState = type { ptr, i32, i32, i32, i8, i8, i8, i8, i64 }
%struct.SBuf = type { ptr, ptr, ptr, %struct.MRef }
%struct.Node = type { %union.TValue, %union.TValue, %struct.MRef }
%struct.GCupval = type { %struct.GCRef, i8, i8, i8, i8, %union.anon, %struct.MRef, i32 }
%union.anon = type { %struct.anon.1 }
%struct.anon.1 = type { %struct.GCRef, %struct.GCRef }
%struct.PRNGState = type { [4 x i64] }
%struct.anon.0 = type { i32, i32 }

@.str = private unnamed_addr constant [23 x i8] c"copy of dead GC object\00", align 1

; Function Attrs: alwaysinline nounwind uwtable
define internal void @checklivetv(ptr noundef %0, ptr noundef %1, ptr noundef %2) #1 {
  %4 = alloca ptr, align 8
  %5 = alloca ptr, align 8
  %6 = alloca ptr, align 8
  store ptr %0, ptr %4, align 8, !tbaa !87
  store ptr %1, ptr %5, align 8, !tbaa !11
  store ptr %2, ptr %6, align 8, !tbaa !92
  ret void
}

; Function Attrs: alwaysinline nounwind uwtable
define internal void @lj_ir_set_(ptr noundef %0, i16 noundef zeroext %1, i16 noundef zeroext %2, i16 noundef zeroext %3) #1 {
  %5 = alloca ptr, align 8
  %6 = alloca i16, align 2
  %7 = alloca i16, align 2
  %8 = alloca i16, align 2
  store ptr %0, ptr %5, align 8, !tbaa !4
  store i16 %1, ptr %6, align 2, !tbaa !14
  store i16 %2, ptr %7, align 2, !tbaa !14
  store i16 %3, ptr %8, align 2, !tbaa !14
  %9 = load i16, ptr %6, align 2, !tbaa !14
  %10 = load ptr, ptr %5, align 8, !tbaa !4
  %11 = getelementptr inbounds nuw %struct.jit_State, ptr %10, i32 0, i32 14
  %12 = getelementptr inbounds nuw %struct.FoldState, ptr %11, i32 0, i32 0
  %13 = getelementptr inbounds nuw %struct.anon.2, ptr %12, i32 0, i32 2
  store i16 %9, ptr %13, align 4, !tbaa !13
  %14 = load i16, ptr %7, align 2, !tbaa !14
  %15 = load ptr, ptr %5, align 8, !tbaa !4
  %16 = getelementptr inbounds nuw %struct.jit_State, ptr %15, i32 0, i32 14
  %17 = getelementptr inbounds nuw %struct.FoldState, ptr %16, i32 0, i32 0
  %18 = getelementptr inbounds nuw %struct.anon.2, ptr %17, i32 0, i32 0
  store i16 %14, ptr %18, align 8, !tbaa !13
  %19 = load i16, ptr %8, align 2, !tbaa !14
  %20 = load ptr, ptr %5, align 8, !tbaa !4
  %21 = getelementptr inbounds nuw %struct.jit_State, ptr %20, i32 0, i32 14
  %22 = getelementptr inbounds nuw %struct.FoldState, ptr %21, i32 0, i32 0
  %23 = getelementptr inbounds nuw %struct.anon.2, ptr %22, i32 0, i32 1
  store i16 %19, ptr %23, align 2, !tbaa !13
  ret void
}

; Function Attrs: alwaysinline nounwind uwtable
define internal void @copyTV(ptr noundef %0, ptr noundef %1, ptr noundef %2) #1 {
  %4 = alloca ptr, align 8
  %5 = alloca ptr, align 8
  %6 = alloca ptr, align 8
  store ptr %0, ptr %4, align 8, !tbaa !87
  store ptr %1, ptr %5, align 8, !tbaa !11
  store ptr %2, ptr %6, align 8, !tbaa !11
  %7 = load ptr, ptr %5, align 8, !tbaa !11
  %8 = load ptr, ptr %6, align 8, !tbaa !11
  call void @llvm.memcpy.p0.p0.i64(ptr align 8 %7, ptr align 8 %8, i64 8, i1 false), !tbaa.struct !91
  %9 = load ptr, ptr %4, align 8, !tbaa !87
  %10 = load ptr, ptr %5, align 8, !tbaa !11
  call void @checklivetv(ptr noundef %9, ptr noundef %10, ptr noundef @.str)
  ret void
}

; Function Attrs: nounwind uwtable
define internal i32 @recff_tmpref(ptr noundef %0, i32 noundef %1, i32 noundef %2) #0 {
  %4 = alloca ptr, align 8
  %5 = alloca i32, align 4
  %6 = alloca i32, align 4
  store ptr %0, ptr %4, align 8, !tbaa !4
  store i32 %1, ptr %5, align 4, !tbaa !9
  store i32 %2, ptr %6, align 4, !tbaa !9
  %7 = load i32, ptr %5, align 4, !tbaa !9
  %8 = lshr i32 %7, 24
  %9 = and i32 %8, 31
  %10 = sub i32 %9, 15
  %11 = icmp ule i32 %10, 4
  br i1 %11, label %12, label %18

12:                                               ; preds = %3
  %13 = load ptr, ptr %4, align 8, !tbaa !4
  %14 = load i32, ptr %5, align 4, !tbaa !9
  %15 = trunc i32 %14 to i16
  call void @lj_ir_set_(ptr noundef %13, i16 noundef zeroext 23310, i16 noundef zeroext %15, i16 noundef zeroext 467)
  %16 = load ptr, ptr %4, align 8, !tbaa !4
  %17 = call i32 @lj_opt_fold(ptr noundef %16)
  store i32 %17, ptr %5, align 4, !tbaa !9
  br label %18

18:                                               ; preds = %12, %3
  %19 = load ptr, ptr %4, align 8, !tbaa !4
  %20 = load i32, ptr %5, align 4, !tbaa !9
  %21 = trunc i32 %20 to i16
  %22 = load i32, ptr %6, align 4, !tbaa !9
  %23 = trunc i32 %22 to i16
  call void @lj_ir_set_(ptr noundef %19, i16 noundef zeroext 16137, i16 noundef zeroext %21, i16 noundef zeroext %23)
  %24 = load ptr, ptr %4, align 8, !tbaa !4
  %25 = call i32 @lj_opt_fold(ptr noundef %24)
  ret i32 %25
}

; Function Attrs: nounwind uwtable
define internal void @recff_next(ptr noundef %0, ptr noundef %1) #0 {
  %3 = alloca ptr, align 8
  %4 = alloca ptr, align 8
  %5 = alloca i32, align 4
  %6 = alloca %struct.RecordIndex, align 8
  %7 = alloca ptr, align 8
  %8 = alloca i32, align 4
  store ptr %0, ptr %3, align 8, !tbaa !4
  store ptr %1, ptr %4, align 8, !tbaa !46
  call void @llvm.lifetime.start.p0(i64 4, ptr %5) #9
  %9 = load ptr, ptr %3, align 8, !tbaa !4
  %10 = getelementptr inbounds nuw %struct.jit_State, ptr %9, i32 0, i32 6
  %11 = load ptr, ptr %10, align 8, !tbaa !41
  %12 = getelementptr inbounds i32, ptr %11, i64 0
  %13 = load i32, ptr %12, align 4, !tbaa !9
  store i32 %13, ptr %5, align 4, !tbaa !9
  %14 = load i32, ptr %5, align 4, !tbaa !9
  %15 = and i32 %14, 520093696
  %16 = icmp eq i32 %15, 184549376
  br i1 %16, label %17, label %121

17:                                               ; preds = %2
  call void @llvm.lifetime.start.p0(i64 72, ptr %6) #9
  call void @llvm.lifetime.start.p0(i64 8, ptr %7) #9
  %18 = load i32, ptr %5, align 4, !tbaa !9
  %19 = getelementptr inbounds nuw %struct.RecordIndex, ptr %6, i32 0, i32 6
  store i32 %18, ptr %19, align 8, !tbaa !50
  %20 = load ptr, ptr %3, align 8, !tbaa !4
  %21 = getelementptr inbounds nuw %struct.jit_State, ptr %20, i32 0, i32 6
  %22 = load ptr, ptr %21, align 8, !tbaa !41
  %23 = getelementptr inbounds i32, ptr %22, i64 1
  %24 = load i32, ptr %23, align 4, !tbaa !9
  %25 = and i32 %24, 520093696
  %26 = icmp eq i32 %25, 0
  br i1 %26, label %27, label %36

27:                                               ; preds = %17
  %28 = load ptr, ptr %3, align 8, !tbaa !4
  %29 = call i32 @lj_ir_kint(ptr noundef %28, i32 noundef 0)
  %30 = getelementptr inbounds nuw %struct.RecordIndex, ptr %6, i32 0, i32 7
  store i32 %29, ptr %30, align 4, !tbaa !53
  %31 = load ptr, ptr %3, align 8, !tbaa !4
  %32 = getelementptr inbounds i8, ptr %31, i64 -832
  %33 = getelementptr inbounds nuw %struct.GG_State, ptr %32, i32 0, i32 1
  %34 = getelementptr inbounds nuw %struct.global_State, ptr %33, i32 0, i32 14
  %35 = getelementptr inbounds nuw %struct.Node, ptr %34, i32 0, i32 0
  store ptr %35, ptr %7, align 8, !tbaa !11
  br label %53

36:                                               ; preds = %17
  call void @llvm.lifetime.start.p0(i64 4, ptr %8) #9
  %37 = load ptr, ptr %3, align 8, !tbaa !4
  %38 = load ptr, ptr %3, align 8, !tbaa !4
  %39 = getelementptr inbounds nuw %struct.jit_State, ptr %38, i32 0, i32 6
  %40 = load ptr, ptr %39, align 8, !tbaa !41
  %41 = getelementptr inbounds i32, ptr %40, i64 1
  %42 = load i32, ptr %41, align 4, !tbaa !9
  %43 = call i32 @recff_tmpref(ptr noundef %37, i32 noundef %42, i32 noundef 1)
  store i32 %43, ptr %8, align 4, !tbaa !9
  %44 = load ptr, ptr %3, align 8, !tbaa !4
  %45 = load i32, ptr %5, align 4, !tbaa !9
  %46 = load i32, ptr %8, align 4, !tbaa !9
  %47 = call i32 (ptr, i32, ...) @lj_ir_call(ptr noundef %44, i32 noundef 36, i32 noundef %45, i32 noundef %46)
  %48 = getelementptr inbounds nuw %struct.RecordIndex, ptr %6, i32 0, i32 7
  store i32 %47, ptr %48, align 4, !tbaa !53
  %49 = load ptr, ptr %4, align 8, !tbaa !46
  %50 = getelementptr inbounds nuw %struct.RecordFFData, ptr %49, i32 0, i32 0
  %51 = load ptr, ptr %50, align 8, !tbaa !40
  %52 = getelementptr inbounds %union.TValue, ptr %51, i64 1
  store ptr %52, ptr %7, align 8, !tbaa !11
  call void @llvm.lifetime.end.p0(i64 4, ptr %8) #9
  br label %53

53:                                               ; preds = %36, %27
  %54 = load ptr, ptr %3, align 8, !tbaa !4
  %55 = getelementptr inbounds nuw %struct.jit_State, ptr %54, i32 0, i32 2
  %56 = load ptr, ptr %55, align 8, !tbaa !37
  %57 = getelementptr inbounds nuw %struct.RecordIndex, ptr %6, i32 0, i32 0
  %58 = load ptr, ptr %4, align 8, !tbaa !46
  %59 = getelementptr inbounds nuw %struct.RecordFFData, ptr %58, i32 0, i32 0
  %60 = load ptr, ptr %59, align 8, !tbaa !40
  %61 = getelementptr inbounds %union.TValue, ptr %60, i64 0
  call void @copyTV(ptr noundef %56, ptr noundef %57, ptr noundef %61)
  %62 = getelementptr inbounds nuw %struct.RecordIndex, ptr %6, i32 0, i32 0
  %63 = getelementptr inbounds nuw %struct.GCRef, ptr %62, i32 0, i32 0
  %64 = load i64, ptr %63, align 8, !tbaa !13
  %65 = and i64 %64, 140737488355327
  %66 = inttoptr i64 %65 to ptr
  %67 = load ptr, ptr %7, align 8, !tbaa !11
  %68 = call i32 @lj_tab_keyindex(ptr noundef %66, ptr noundef %67)
  %69 = getelementptr inbounds nuw %struct.RecordIndex, ptr %6, i32 0, i32 1
  %70 = getelementptr inbounds nuw %struct.anon.0, ptr %69, i32 0, i32 0
  store i32 %68, ptr %70, align 8, !tbaa !13
  %71 = load ptr, ptr %3, align 8, !tbaa !4
  %72 = getelementptr inbounds nuw %struct.jit_State, ptr %71, i32 0, i32 21
  %73 = load i32, ptr %72, align 4, !tbaa !49
  %74 = icmp ne i32 %73, 0
  br i1 %74, label %75, label %99

75:                                               ; preds = %53
  %76 = load ptr, ptr %3, align 8, !tbaa !4
  %77 = getelementptr inbounds nuw %struct.jit_State, ptr %76, i32 0, i32 2
  %78 = load ptr, ptr %77, align 8, !tbaa !37
  %79 = getelementptr inbounds nuw %struct.lua_State, ptr %78, i32 0, i32 7
  %80 = load ptr, ptr %79, align 8, !tbaa !38
  %81 = getelementptr inbounds %union.TValue, ptr %80, i64 -1
  %82 = load i64, ptr %81, align 8, !tbaa !13
  %83 = and i64 %82, 3
  %84 = icmp eq i64 %83, 0
  br i1 %84, label %85, label %99

85:                                               ; preds = %75
  %86 = load ptr, ptr %3, align 8, !tbaa !4
  %87 = getelementptr inbounds nuw %struct.jit_State, ptr %86, i32 0, i32 2
  %88 = load ptr, ptr %87, align 8, !tbaa !37
  %89 = getelementptr inbounds nuw %struct.lua_State, ptr %88, i32 0, i32 7
  %90 = load ptr, ptr %89, align 8, !tbaa !38
  %91 = getelementptr inbounds %union.TValue, ptr %90, i64 -1
  %92 = load i64, ptr %91, align 8, !tbaa !13
  %93 = inttoptr i64 %92 to ptr
  %94 = getelementptr inbounds i32, ptr %93, i64 -1
  %95 = load i32, ptr %94, align 4, !tbaa !9
  %96 = lshr i32 %95, 24
  %97 = sub i32 %96, 1
  %98 = icmp ult i32 %97, 2
  br label %99

99:                                               ; preds = %85, %75, %53
  %100 = phi i1 [ false, %75 ], [ false, %53 ], [ %98, %85 ]
  %101 = zext i1 %100 to i32
  %102 = getelementptr inbounds nuw %struct.RecordIndex, ptr %6, i32 0, i32 11
  store i32 %101, ptr %102, align 4, !tbaa !54
  %103 = getelementptr inbounds nuw %struct.RecordIndex, ptr %6, i32 0, i32 10
  store i32 0, ptr %103, align 8, !tbaa !55
  %104 = load ptr, ptr %3, align 8, !tbaa !4
  %105 = call i32 @lj_record_next(ptr noundef %104, ptr noundef %6)
  %106 = sext i32 %105 to i64
  %107 = load ptr, ptr %4, align 8, !tbaa !46
  %108 = getelementptr inbounds nuw %struct.RecordFFData, ptr %107, i32 0, i32 1
  store i64 %106, ptr %108, align 8, !tbaa !36
  %109 = getelementptr inbounds nuw %struct.RecordIndex, ptr %6, i32 0, i32 7
  %110 = load i32, ptr %109, align 4, !tbaa !53
  %111 = load ptr, ptr %3, align 8, !tbaa !4
  %112 = getelementptr inbounds nuw %struct.jit_State, ptr %111, i32 0, i32 6
  %113 = load ptr, ptr %112, align 8, !tbaa !41
  %114 = getelementptr inbounds i32, ptr %113, i64 0
  store i32 %110, ptr %114, align 4, !tbaa !9
  %115 = getelementptr inbounds nuw %struct.RecordIndex, ptr %6, i32 0, i32 8
  %116 = load i32, ptr %115, align 8, !tbaa !56
  %117 = load ptr, ptr %3, align 8, !tbaa !4
  %118 = getelementptr inbounds nuw %struct.jit_State, ptr %117, i32 0, i32 6
  %119 = load ptr, ptr %118, align 8, !tbaa !41
  %120 = getelementptr inbounds i32, ptr %119, i64 1
  store i32 %116, ptr %120, align 4, !tbaa !9
  call void @llvm.lifetime.end.p0(i64 8, ptr %7) #9
  call void @llvm.lifetime.end.p0(i64 72, ptr %6) #9
  br label %121

121:                                              ; preds = %99, %2
  call void @llvm.lifetime.end.p0(i64 4, ptr %5) #9
  ret void
}