; Function Attrs: nounwind uwtable
define internal void @recff_next(ptr noundef %0, ptr noundef captures(none) %1) #0 {
  %3 = alloca %struct.RecordIndex, align 8
  %4 = getelementptr inbounds nuw i8, ptr %0, i64 160
  %5 = load ptr, ptr %4, align 8, !tbaa !37
  %6 = load i32, ptr %5, align 4, !tbaa !39
  %7 = and i32 %6, 520093696
  %8 = icmp eq i32 %7, 184549376
  br i1 %8, label %9, label %78

9:                                                ; preds = %2
  call void @llvm.lifetime.start.p0(i64 72, ptr nonnull %3) #9
  %10 = getelementptr inbounds nuw i8, ptr %3, i64 48
  store i32 %6, ptr %10, align 8, !tbaa !47
  %11 = getelementptr inbounds nuw i8, ptr %5, i64 4
  %12 = load i32, ptr %11, align 4, !tbaa !39
  %13 = and i32 %12, 520093696
  %14 = icmp eq i32 %13, 0
  br i1 %14, label %15, label %19

15:                                               ; preds = %9
  %16 = tail call i32 @lj_ir_kint(ptr noundef nonnull %0, i32 noundef 0) #9
  %17 = getelementptr inbounds nuw i8, ptr %3, i64 52
  store i32 %16, ptr %17, align 4, !tbaa !50
  %18 = getelementptr inbounds i8, ptr %0, i64 -488
  %.pre = load ptr, ptr %1, align 8, !tbaa !36
  br label %39

19:                                               ; preds = %9
  %20 = lshr i32 %12, 24
  %21 = and i32 %20, 31
  %22 = add nsw i32 %21, -15
  %23 = icmp ult i32 %22, 5
  br i1 %23, label %24, label %recff_tmpref.exit

24:                                               ; preds = %19
  %25 = trunc i32 %12 to i16
  %26 = getelementptr inbounds nuw i8, ptr %0, i64 184
  %27 = getelementptr inbounds nuw i8, ptr %0, i64 188
  store i16 23310, ptr %27, align 4, !tbaa !4
  store i16 %25, ptr %26, align 8, !tbaa !4
  %28 = getelementptr inbounds nuw i8, ptr %0, i64 186
  store i16 467, ptr %28, align 2, !tbaa !4
  %29 = tail call i32 @lj_opt_fold(ptr noundef nonnull %0) #9
  br label %recff_tmpref.exit

recff_tmpref.exit:                                ; preds = %19, %24
  %.0.i = phi i32 [ %29, %24 ], [ %12, %19 ]
  %30 = trunc i32 %.0.i to i16
  %31 = getelementptr inbounds nuw i8, ptr %0, i64 184
  %32 = getelementptr inbounds nuw i8, ptr %0, i64 188
  store i16 16137, ptr %32, align 4, !tbaa !4
  store i16 %30, ptr %31, align 8, !tbaa !4
  %33 = getelementptr inbounds nuw i8, ptr %0, i64 186
  store i16 1, ptr %33, align 2, !tbaa !4
  %34 = tail call i32 @lj_opt_fold(ptr noundef nonnull %0) #9
  %35 = tail call i32 (ptr, i32, ...) @lj_ir_call(ptr noundef nonnull %0, i32 noundef 36, i32 noundef %6, i32 noundef %34) #9
  %36 = getelementptr inbounds nuw i8, ptr %3, i64 52
  store i32 %35, ptr %36, align 4, !tbaa !50
  %37 = load ptr, ptr %1, align 8, !tbaa !36
  %38 = getelementptr inbounds nuw i8, ptr %37, i64 8
  br label %39

39:                                               ; preds = %recff_tmpref.exit, %15
  %40 = phi ptr [ %.pre, %15 ], [ %37, %recff_tmpref.exit ]
  %.0 = phi ptr [ %18, %15 ], [ %38, %recff_tmpref.exit ]
  %41 = load i64, ptr %40, align 8, !tbaa !4
  store i64 %41, ptr %3, align 8, !tbaa !4
  %42 = and i64 %41, 140737488355327
  %43 = inttoptr i64 %42 to ptr
  %44 = tail call i32 @lj_tab_keyindex(ptr noundef %43, ptr noundef nonnull %.0) #9
  %45 = getelementptr inbounds nuw i8, ptr %3, i64 8
  store i32 %44, ptr %45, align 8, !tbaa !4
  %46 = getelementptr inbounds nuw i8, ptr %0, i64 252
  %47 = load i32, ptr %46, align 4, !tbaa !43
  %.not = icmp eq i32 %47, 0
  br i1 %.not, label %65, label %48

48:                                               ; preds = %39
  %49 = getelementptr inbounds nuw i8, ptr %0, i64 128
  %50 = load ptr, ptr %49, align 8, !tbaa !33
  %51 = getelementptr inbounds nuw i8, ptr %50, i64 32
  %52 = load ptr, ptr %51, align 8, !tbaa !34
  %53 = getelementptr inbounds i8, ptr %52, i64 -8
  %54 = load i64, ptr %53, align 8, !tbaa !4
  %55 = and i64 %54, 3
  %56 = icmp eq i64 %55, 0
  br i1 %56, label %57, label %65

57:                                               ; preds = %48
  %58 = inttoptr i64 %54 to ptr
  %59 = getelementptr inbounds i8, ptr %58, i64 -4
  %60 = load i32, ptr %59, align 4, !tbaa !39
  %61 = lshr i32 %60, 24
  %62 = add nsw i32 %61, -1
  %63 = icmp ult i32 %62, 2
  %64 = zext i1 %63 to i32
  br label %65

65:                                               ; preds = %57, %48, %39
  %66 = phi i32 [ 0, %48 ], [ 0, %39 ], [ %64, %57 ]
  %67 = getelementptr inbounds nuw i8, ptr %3, i64 68
  store i32 %66, ptr %67, align 4, !tbaa !51
  %68 = getelementptr inbounds nuw i8, ptr %3, i64 64
  store i32 0, ptr %68, align 8, !tbaa !52
  %69 = call i32 @lj_record_next(ptr noundef nonnull %0, ptr noundef nonnull %3) #9
  %70 = sext i32 %69 to i64
  %71 = getelementptr inbounds nuw i8, ptr %1, i64 8
  store i64 %70, ptr %71, align 8, !tbaa !32
  %72 = getelementptr inbounds nuw i8, ptr %3, i64 52
  %73 = load i32, ptr %72, align 4, !tbaa !50
  %74 = load ptr, ptr %4, align 8, !tbaa !37
  store i32 %73, ptr %74, align 4, !tbaa !39
  %75 = getelementptr inbounds nuw i8, ptr %3, i64 56
  %76 = load i32, ptr %75, align 8, !tbaa !53
  %77 = getelementptr inbounds nuw i8, ptr %74, i64 4
  store i32 %76, ptr %77, align 4, !tbaa !39
  call void @llvm.lifetime.end.p0(i64 72, ptr nonnull %3) #9
  br label %78

78:                                               ; preds = %65, %2
  ret void
}